; ModuleID = '57/3250.c'
source_filename = "57/3250.c"
target datalayout = "e-m:e-p270:32:32-p271:32:32-p272:64:64-i64:64-f80:128-n8:16:32:64-S128"
target triple = "x86_64-pc-linux-gnu"

@.str = private unnamed_addr constant [3 x i8] c"%d\00", align 1
@.str.1 = private unnamed_addr constant [3 x i8] c"%s\00", align 1
@.str.2 = private unnamed_addr constant [3 x i8] c"%c\00", align 1
@.str.3 = private unnamed_addr constant [4 x i8] c"%c\0A\00", align 1

; Function Attrs: noinline nounwind uwtable
define dso_local i32 @main() #0 {
  %1 = alloca i32, align 4
  %2 = alloca i32, align 4
  %3 = alloca i32, align 4
  %4 = alloca i32, align 4
  %5 = alloca i32, align 4
  %6 = alloca [50 x i32], align 16
  %7 = alloca [50 x i32], align 16
  %8 = alloca [50 x [100 x i8]], align 16
  store i32 0, i32* %1, align 4
  %9 = call i32 (i8*, ...) @__isoc99_scanf(i8* getelementptr inbounds ([3 x i8], [3 x i8]* @.str, i64 0, i64 0), i32* %2)
  store i32 0, i32* %3, align 4
  br label %10

10:                                               ; preds = %28, %0
  %11 = load i32, i32* %3, align 4
  %12 = load i32, i32* %2, align 4
  %13 = icmp slt i32 %11, %12
  br i1 %13, label %14, label %31

14:                                               ; preds = %10
  %15 = load i32, i32* %3, align 4
  %16 = sext i32 %15 to i64
  %17 = getelementptr inbounds [50 x [100 x i8]], [50 x [100 x i8]]* %8, i64 0, i64 %16
  %18 = call i32 (i8*, ...) @__isoc99_scanf(i8* getelementptr inbounds ([3 x i8], [3 x i8]* @.str.1, i64 0, i64 0), [100 x i8]* %17)
  %19 = load i32, i32* %3, align 4
  %20 = sext i32 %19 to i64
  %21 = getelementptr inbounds [50 x [100 x i8]], [50 x [100 x i8]]* %8, i64 0, i64 %20
  %22 = getelementptr inbounds [100 x i8], [100 x i8]* %21, i64 0, i64 0
  %23 = call i64 @strlen(i8* %22) #3
  %24 = trunc i64 %23 to i32
  %25 = load i32, i32* %3, align 4
  %26 = sext i32 %25 to i64
  %27 = getelementptr inbounds [50 x i32], [50 x i32]* %7, i64 0, i64 %26
  store i32 %24, i32* %27, align 4
  br label %28

28:                                               ; preds = %14
  %29 = load i32, i32* %3, align 4
  %30 = add nsw i32 %29, 1
  store i32 %30, i32* %3, align 4
  br label %10

31:                                               ; preds = %10
  store i32 0, i32* %3, align 4
  br label %32

32:                                               ; preds = %147, %31
  %33 = load i32, i32* %3, align 4
  %34 = load i32, i32* %2, align 4
  %35 = icmp slt i32 %33, %34
  br i1 %35, label %36, label %150

36:                                               ; preds = %32
  %37 = load i32, i32* %3, align 4
  %38 = sext i32 %37 to i64
  %39 = getelementptr inbounds [50 x [100 x i8]], [50 x [100 x i8]]* %8, i64 0, i64 %38
  %40 = load i32, i32* %3, align 4
  %41 = sext i32 %40 to i64
  %42 = getelementptr inbounds [50 x i32], [50 x i32]* %7, i64 0, i64 %41
  %43 = load i32, i32* %42, align 4
  %44 = sub nsw i32 %43, 1
  %45 = sext i32 %44 to i64
  %46 = getelementptr inbounds [100 x i8], [100 x i8]* %39, i64 0, i64 %45
  %47 = load i8, i8* %46, align 1
  %48 = sext i8 %47 to i32
  %49 = icmp eq i32 %48, 114
  br i1 %49, label %50, label %68

50:                                               ; preds = %36
  %51 = load i32, i32* %3, align 4
  %52 = sext i32 %51 to i64
  %53 = getelementptr inbounds [50 x [100 x i8]], [50 x [100 x i8]]* %8, i64 0, i64 %52
  %54 = load i32, i32* %3, align 4
  %55 = sext i32 %54 to i64
  %56 = getelementptr inbounds [50 x i32], [50 x i32]* %7, i64 0, i64 %55
  %57 = load i32, i32* %56, align 4
  %58 = sub nsw i32 %57, 2
  %59 = sext i32 %58 to i64
  %60 = getelementptr inbounds [100 x i8], [100 x i8]* %53, i64 0, i64 %59
  %61 = load i8, i8* %60, align 1
  %62 = sext i8 %61 to i32
  %63 = icmp eq i32 %62, 101
  br i1 %63, label %64, label %68

64:                                               ; preds = %50
  %65 = load i32, i32* %3, align 4
  %66 = sext i32 %65 to i64
  %67 = getelementptr inbounds [50 x i32], [50 x i32]* %6, i64 0, i64 %66
  store i32 0, i32* %67, align 4
  br label %68

68:                                               ; preds = %64, %50, %36
  %69 = load i32, i32* %3, align 4
  %70 = sext i32 %69 to i64
  %71 = getelementptr inbounds [50 x [100 x i8]], [50 x [100 x i8]]* %8, i64 0, i64 %70
  %72 = load i32, i32* %3, align 4
  %73 = sext i32 %72 to i64
  %74 = getelementptr inbounds [50 x i32], [50 x i32]* %7, i64 0, i64 %73
  %75 = load i32, i32* %74, align 4
  %76 = sub nsw i32 %75, 1
  %77 = sext i32 %76 to i64
  %78 = getelementptr inbounds [100 x i8], [100 x i8]* %71, i64 0, i64 %77
  %79 = load i8, i8* %78, align 1
  %80 = sext i8 %79 to i32
  %81 = icmp eq i32 %80, 121
  br i1 %81, label %82, label %100

82:                                               ; preds = %68
  %83 = load i32, i32* %3, align 4
  %84 = sext i32 %83 to i64
  %85 = getelementptr inbounds [50 x [100 x i8]], [50 x [100 x i8]]* %8, i64 0, i64 %84
  %86 = load i32, i32* %3, align 4
  %87 = sext i32 %86 to i64
  %88 = getelementptr inbounds [50 x i32], [50 x i32]* %7, i64 0, i64 %87
  %89 = load i32, i32* %88, align 4
  %90 = sub nsw i32 %89, 2
  %91 = sext i32 %90 to i64
  %92 = getelementptr inbounds [100 x i8], [100 x i8]* %85, i64 0, i64 %91
  %93 = load i8, i8* %92, align 1
  %94 = sext i8 %93 to i32
  %95 = icmp eq i32 %94, 108
  br i1 %95, label %96, label %100

96:                                               ; preds = %82
  %97 = load i32, i32* %3, align 4
  %98 = sext i32 %97 to i64
  %99 = getelementptr inbounds [50 x i32], [50 x i32]* %6, i64 0, i64 %98
  store i32 1, i32* %99, align 4
  br label %100

100:                                              ; preds = %96, %82, %68
  %101 = load i32, i32* %3, align 4
  %102 = sext i32 %101 to i64
  %103 = getelementptr inbounds [50 x [100 x i8]], [50 x [100 x i8]]* %8, i64 0, i64 %102
  %104 = load i32, i32* %3, align 4
  %105 = sext i32 %104 to i64
  %106 = getelementptr inbounds [50 x i32], [50 x i32]* %7, i64 0, i64 %105
  %107 = load i32, i32* %106, align 4
  %108 = sub nsw i32 %107, 1
  %109 = sext i32 %108 to i64
  %110 = getelementptr inbounds [100 x i8], [100 x i8]* %103, i64 0, i64 %109
  %111 = load i8, i8* %110, align 1
  %112 = sext i8 %111 to i32
  %113 = icmp eq i32 %112, 103
  br i1 %113, label %114, label %146

114:                                              ; preds = %100
  %115 = load i32, i32* %3, align 4
  %116 = sext i32 %115 to i64
  %117 = getelementptr inbounds [50 x [100 x i8]], [50 x [100 x i8]]* %8, i64 0, i64 %116
  %118 = load i32, i32* %3, align 4
  %119 = sext i32 %118 to i64
  %120 = getelementptr inbounds [50 x i32], [50 x i32]* %7, i64 0, i64 %119
  %121 = load i32, i32* %120, align 4
  %122 = sub nsw i32 %121, 2
  %123 = sext i32 %122 to i64
  %124 = getelementptr inbounds [100 x i8], [100 x i8]* %117, i64 0, i64 %123
  %125 = load i8, i8* %124, align 1
  %126 = sext i8 %125 to i32
  %127 = icmp eq i32 %126, 110
  br i1 %127, label %128, label %146

128:                                              ; preds = %114
  %129 = load i32, i32* %3, align 4
  %130 = sext i32 %129 to i64
  %131 = getelementptr inbounds [50 x [100 x i8]], [50 x [100 x i8]]* %8, i64 0, i64 %130
  %132 = load i32, i32* %3, align 4
  %133 = sext i32 %132 to i64
  %134 = getelementptr inbounds [50 x i32], [50 x i32]* %7, i64 0, i64 %133
  %135 = load i32, i32* %134, align 4
  %136 = sub nsw i32 %135, 3
  %137 = sext i32 %136 to i64
  %138 = getelementptr inbounds [100 x i8], [100 x i8]* %131, i64 0, i64 %137
  %139 = load i8, i8* %138, align 1
  %140 = sext i8 %139 to i32
  %141 = icmp eq i32 %140, 105
  br i1 %141, label %142, label %146

142:                                              ; preds = %128
  %143 = load i32, i32* %3, align 4
  %144 = sext i32 %143 to i64
  %145 = getelementptr inbounds [50 x i32], [50 x i32]* %6, i64 0, i64 %144
  store i32 2, i32* %145, align 4
  br label %146

146:                                              ; preds = %142, %128, %114, %100
  br label %147

147:                                              ; preds = %146
  %148 = load i32, i32* %3, align 4
  %149 = add nsw i32 %148, 1
  store i32 %149, i32* %3, align 4
  br label %32

150:                                              ; preds = %32
  store i32 0, i32* %3, align 4
  br label %151

151:                                              ; preds = %246, %150
  %152 = load i32, i32* %3, align 4
  %153 = load i32, i32* %2, align 4
  %154 = icmp slt i32 %152, %153
  br i1 %154, label %155, label %249

155:                                              ; preds = %151
  %156 = load i32, i32* %3, align 4
  %157 = sext i32 %156 to i64
  %158 = getelementptr inbounds [50 x i32], [50 x i32]* %6, i64 0, i64 %157
  %159 = load i32, i32* %158, align 4
  %160 = icmp eq i32 %159, 0
  br i1 %160, label %167, label %161

161:                                              ; preds = %155
  %162 = load i32, i32* %3, align 4
  %163 = sext i32 %162 to i64
  %164 = getelementptr inbounds [50 x i32], [50 x i32]* %6, i64 0, i64 %163
  %165 = load i32, i32* %164, align 4
  %166 = icmp eq i32 %165, 1
  br i1 %166, label %167, label %203

167:                                              ; preds = %161, %155
  store i32 0, i32* %5, align 4
  br label %168

168:                                              ; preds = %186, %167
  %169 = load i32, i32* %5, align 4
  %170 = load i32, i32* %3, align 4
  %171 = sext i32 %170 to i64
  %172 = getelementptr inbounds [50 x i32], [50 x i32]* %7, i64 0, i64 %171
  %173 = load i32, i32* %172, align 4
  %174 = sub nsw i32 %173, 4
  %175 = icmp sle i32 %169, %174
  br i1 %175, label %176, label %189

176:                                              ; preds = %168
  %177 = load i32, i32* %3, align 4
  %178 = sext i32 %177 to i64
  %179 = getelementptr inbounds [50 x [100 x i8]], [50 x [100 x i8]]* %8, i64 0, i64 %178
  %180 = load i32, i32* %5, align 4
  %181 = sext i32 %180 to i64
  %182 = getelementptr inbounds [100 x i8], [100 x i8]* %179, i64 0, i64 %181
  %183 = load i8, i8* %182, align 1
  %184 = sext i8 %183 to i32
  %185 = call i32 (i8*, ...) @printf(i8* getelementptr inbounds ([3 x i8], [3 x i8]* @.str.2, i64 0, i64 0), i32 %184)
  br label %186

186:                                              ; preds = %176
  %187 = load i32, i32* %5, align 4
  %188 = add nsw i32 %187, 1
  store i32 %188, i32* %5, align 4
  br label %168

189:                                              ; preds = %168
  %190 = load i32, i32* %3, align 4
  %191 = sext i32 %190 to i64
  %192 = getelementptr inbounds [50 x [100 x i8]], [50 x [100 x i8]]* %8, i64 0, i64 %191
  %193 = load i32, i32* %3, align 4
  %194 = sext i32 %193 to i64
  %195 = getelementptr inbounds [50 x i32], [50 x i32]* %7, i64 0, i64 %194
  %196 = load i32, i32* %195, align 4
  %197 = sub nsw i32 %196, 3
  %198 = sext i32 %197 to i64
  %199 = getelementptr inbounds [100 x i8], [100 x i8]* %192, i64 0, i64 %198
  %200 = load i8, i8* %199, align 1
  %201 = sext i8 %200 to i32
  %202 = call i32 (i8*, ...) @printf(i8* getelementptr inbounds ([4 x i8], [4 x i8]* @.str.3, i64 0, i64 0), i32 %201)
  br label %203

203:                                              ; preds = %189, %161
  %204 = load i32, i32* %3, align 4
  %205 = sext i32 %204 to i64
  %206 = getelementptr inbounds [50 x i32], [50 x i32]* %6, i64 0, i64 %205
  %207 = load i32, i32* %206, align 4
  %208 = icmp eq i32 %207, 2
  br i1 %208, label %209, label %245

209:                                              ; preds = %203
  store i32 0, i32* %5, align 4
  br label %210

210:                                              ; preds = %228, %209
  %211 = load i32, i32* %5, align 4
  %212 = load i32, i32* %3, align 4
  %213 = sext i32 %212 to i64
  %214 = getelementptr inbounds [50 x i32], [50 x i32]* %7, i64 0, i64 %213
  %215 = load i32, i32* %214, align 4
  %216 = sub nsw i32 %215, 5
  %217 = icmp sle i32 %211, %216
  br i1 %217, label %218, label %231

218:                                              ; preds = %210
  %219 = load i32, i32* %3, align 4
  %220 = sext i32 %219 to i64
  %221 = getelementptr inbounds [50 x [100 x i8]], [50 x [100 x i8]]* %8, i64 0, i64 %220
  %222 = load i32, i32* %5, align 4
  %223 = sext i32 %222 to i64
  %224 = getelementptr inbounds [100 x i8], [100 x i8]* %221, i64 0, i64 %223
  %225 = load i8, i8* %224, align 1
  %226 = sext i8 %225 to i32
  %227 = call i32 (i8*, ...) @printf(i8* getelementptr inbounds ([3 x i8], [3 x i8]* @.str.2, i64 0, i64 0), i32 %226)
  br label %228

228:                                              ; preds = %218
  %229 = load i32, i32* %5, align 4
  %230 = add nsw i32 %229, 1
  store i32 %230, i32* %5, align 4
  br label %210

231:                                              ; preds = %210
  %232 = load i32, i32* %3, align 4
  %233 = sext i32 %232 to i64
  %234 = getelementptr inbounds [50 x [100 x i8]], [50 x [100 x i8]]* %8, i64 0, i64 %233
  %235 = load i32, i32* %3, align 4
  %236 = sext i32 %235 to i64
  %237 = getelementptr inbounds [50 x i32], [50 x i32]* %7, i64 0, i64 %236
  %238 = load i32, i32* %237, align 4
  %239 = sub nsw i32 %238, 4
  %240 = sext i32 %239 to i64
  %241 = getelementptr inbounds [100 x i8], [100 x i8]* %234, i64 0, i64 %240
  %242 = load i8, i8* %241, align 1
  %243 = sext i8 %242 to i32
  %244 = call i32 (i8*, ...) @printf(i8* getelementptr inbounds ([4 x i8], [4 x i8]* @.str.3, i64 0, i64 0), i32 %243)
  br label %245

245:                                              ; preds = %231, %203
  br label %246

246:                                              ; preds = %245
  %247 = load i32, i32* %3, align 4
  %248 = add nsw i32 %247, 1
  store i32 %248, i32* %3, align 4
  br label %151

249:                                              ; preds = %151
  ret i32 0
}

declare dso_local i32 @__isoc99_scanf(i8*, ...) #1

; Function Attrs: nounwind readonly
declare dso_local i64 @strlen(i8*) #2

declare dso_local i32 @printf(i8*, ...) #1


!llvm.module.flags = !{!0}
!llvm.ident = !{!1}

!0 = !{i32 1, !"wchar_size", i32 4}
!1 = !{!"clang version 10.0.0-4ubuntu1 "}
